target datalayout = "e-m:e-p270:32:32-p271:32:32-p272:64:64-i64:64-i128:128-f80:128-n8:16:32:64-S128"
target triple = "x86_64-pc-linux-gnu"

%"class.llvm::Metadata" = type { i8, i8, i16, i32 }
%"class.llvm::ArrayRef" = type { ptr, i64 }
%"class.llvm::MDNode" = type { %"class.llvm::Metadata", %"class.llvm::ContextAndReplaceableUses" }
%"class.llvm::ContextAndReplaceableUses" = type { %"class.llvm::PointerUnion" }
%"class.llvm::PointerUnion" = type { %"class.llvm::pointer_union_detail::PointerUnionMembers" }
%"class.llvm::pointer_union_detail::PointerUnionMembers" = type { %"class.llvm::pointer_union_detail::PointerUnionMembers.0" }
%"class.llvm::pointer_union_detail::PointerUnionMembers.0" = type { %"class.llvm::pointer_union_detail::PointerUnionMembers.1" }
%"class.llvm::pointer_union_detail::PointerUnionMembers.1" = type { %"class.llvm::PointerIntPair" }
%"class.llvm::PointerIntPair" = type { %"struct.llvm::detail::PunnedPointer" }
%"struct.llvm::detail::PunnedPointer" = type { [8 x i8] }
%"class.llvm::DIEnumerator" = type { %"class.llvm::DINode", %"class.llvm::APInt" }
%"class.llvm::DINode" = type { %"class.llvm::MDNode" }
%"class.llvm::APInt" = type <{ %union.anon.427, i32, [4 x i8] }>
%union.anon.427 = type { i64 }

; Function Attrs: mustprogress nounwind uwtable
define linkonce_odr hidden noundef zeroext i1 @_ZNK4llvm5APInt12isSingleWordEv(ptr noundef nonnull align 8 dereferenceable(12) %0) #1 comdat align 2 {
  %2 = alloca ptr, align 8
  store ptr %0, ptr %2, align 8
  %3 = load ptr, ptr %2, align 8
  %4 = getelementptr inbounds nuw %"class.llvm::APInt", ptr %3, i32 0, i32 1
  %5 = load i32, ptr %4, align 8
  %6 = icmp ule i32 %5, 64
  ret i1 %6
}

; Function Attrs: mustprogress nounwind uwtable
define linkonce_odr hidden void @_ZN4llvm5APIntC2ERKS0_(ptr noundef nonnull align 8 dereferenceable(12) %0, ptr noundef nonnull align 8 dereferenceable(12) %1) unnamed_addr #1 comdat align 2 {
  %3 = alloca ptr, align 8
  %4 = alloca ptr, align 8
  store ptr %0, ptr %3, align 8
  store ptr %1, ptr %4, align 8
  %5 = load ptr, ptr %3, align 8
  %6 = getelementptr inbounds nuw %"class.llvm::APInt", ptr %5, i32 0, i32 1
  %7 = load ptr, ptr %4, align 8
  %8 = getelementptr inbounds nuw %"class.llvm::APInt", ptr %7, i32 0, i32 1
  %9 = load i32, ptr %8, align 8
  store i32 %9, ptr %6, align 8
  %10 = call noundef zeroext i1 @_ZNK4llvm5APInt12isSingleWordEv(ptr noundef nonnull align 8 dereferenceable(12) %5)
  br i1 %10, label %11, label %16

11:                                               ; preds = %2
  %12 = load ptr, ptr %4, align 8
  %13 = getelementptr inbounds nuw %"class.llvm::APInt", ptr %12, i32 0, i32 0
  %14 = load i64, ptr %13, align 8
  %15 = getelementptr inbounds nuw %"class.llvm::APInt", ptr %5, i32 0, i32 0
  store i64 %14, ptr %15, align 8
  br label %18

16:                                               ; preds = %2
  %17 = load ptr, ptr %4, align 8
  call void @_ZN4llvm5APInt12initSlowCaseERKS0_(ptr noundef nonnull align 8 dereferenceable(12) %5, ptr noundef nonnull align 8 dereferenceable(12) %17)
  br label %18

18:                                               ; preds = %16, %11
  ret void
}

; Function Attrs: mustprogress nounwind uwtable
define linkonce_odr hidden void @_ZN4llvm6DINodeC2ERNS_11LLVMContextEjNS_8Metadata11StorageTypeEjNS_8ArrayRefIPS3_EES7_(ptr noundef nonnull align 8 dereferenceable(16) %0, ptr noundef nonnull align 8 dereferenceable(8) %1, i32 noundef %2, i32 noundef %3, i32 noundef %4, ptr noundef byval(%"class.llvm::ArrayRef") align 8 %5, ptr noundef byval(%"class.llvm::ArrayRef") align 8 %6) unnamed_addr #1 comdat align 2 {
  %8 = alloca ptr, align 8
  %9 = alloca ptr, align 8
  %10 = alloca i32, align 4
  %11 = alloca i32, align 4
  %12 = alloca i32, align 4
  %13 = alloca %"class.llvm::ArrayRef", align 8
  %14 = alloca %"class.llvm::ArrayRef", align 8
  store ptr %0, ptr %8, align 8
  store ptr %1, ptr %9, align 8
  store i32 %2, ptr %10, align 4
  store i32 %3, ptr %11, align 4
  store i32 %4, ptr %12, align 4
  %15 = load ptr, ptr %8, align 8
  %16 = load ptr, ptr %9, align 8
  %17 = load i32, ptr %10, align 4
  %18 = load i32, ptr %11, align 4
  call void @llvm.memcpy.p0.p0.i64(ptr align 8 %13, ptr align 8 %5, i64 16, i1 false)
  call void @llvm.memcpy.p0.p0.i64(ptr align 8 %14, ptr align 8 %6, i64 16, i1 false)
  %19 = getelementptr inbounds nuw { ptr, i64 }, ptr %13, i32 0, i32 0
  %20 = load ptr, ptr %19, align 8
  %21 = getelementptr inbounds nuw { ptr, i64 }, ptr %13, i32 0, i32 1
  %22 = load i64, ptr %21, align 8
  call void @_ZN4llvm6MDNodeC2ERNS_11LLVMContextEjNS_8Metadata11StorageTypeENS_8ArrayRefIPS3_EES7_(ptr noundef nonnull align 8 dereferenceable(16) %15, ptr noundef nonnull align 8 dereferenceable(8) %16, i32 noundef %17, i32 noundef %18, ptr %20, i64 %22, ptr noundef byval(%"class.llvm::ArrayRef") align 8 %14)
  %23 = load i32, ptr %12, align 4
  %24 = trunc i32 %23 to i16
  %25 = getelementptr inbounds nuw %"class.llvm::Metadata", ptr %15, i32 0, i32 2
  store i16 %24, ptr %25, align 2
  ret void
}

; Function Attrs: mustprogress nounwind uwtable
define linkonce_odr hidden void @_ZN4llvm8ArrayRefIPNS_8MetadataEEC2ESt9nullopt_t(ptr noundef nonnull align 8 dereferenceable(16) %0) unnamed_addr #1 comdat align 2 {
  %2 = alloca ptr, align 8
  store ptr %0, ptr %2, align 8
  %3 = load ptr, ptr %2, align 8
  %4 = getelementptr inbounds nuw %"class.llvm::ArrayRef", ptr %3, i32 0, i32 0
  store ptr null, ptr %4, align 8
  %5 = getelementptr inbounds nuw %"class.llvm::ArrayRef", ptr %3, i32 0, i32 1
  store i64 0, ptr %5, align 8
  ret void
}

; Function Attrs: mustprogress nounwind uwtable
define dso_local void @_ZN4llvm12DIEnumeratorC2ERNS_11LLVMContextENS_8Metadata11StorageTypeERKNS_5APIntEbNS_8ArrayRefIPS3_EE(ptr noundef nonnull align 8 dereferenceable(32) %0, ptr noundef nonnull align 8 dereferenceable(8) %1, i32 noundef %2, ptr noundef nonnull align 8 dereferenceable(12) %3, i1 noundef zeroext %4, ptr noundef byval(%"class.llvm::ArrayRef") align 8 %5) unnamed_addr #1 align 2 {
  %7 = alloca ptr, align 8
  %8 = alloca ptr, align 8
  %9 = alloca i32, align 4
  %10 = alloca ptr, align 8
  %11 = alloca i8, align 1
  %12 = alloca %"class.llvm::ArrayRef", align 8
  %13 = alloca %"class.llvm::ArrayRef", align 8
  store ptr %0, ptr %7, align 8
  store ptr %1, ptr %8, align 8
  store i32 %2, ptr %9, align 4
  store ptr %3, ptr %10, align 8
  %14 = zext i1 %4 to i8
  store i8 %14, ptr %11, align 1
  %15 = load ptr, ptr %7, align 8
  %16 = load ptr, ptr %8, align 8
  %17 = load i32, ptr %9, align 4
  call void @llvm.memcpy.p0.p0.i64(ptr align 8 %12, ptr align 8 %5, i64 16, i1 false)
  call void @_ZN4llvm8ArrayRefIPNS_8MetadataEEC2ESt9nullopt_t(ptr noundef nonnull align 8 dereferenceable(16) %13)
  call void @_ZN4llvm6DINodeC2ERNS_11LLVMContextEjNS_8Metadata11StorageTypeEjNS_8ArrayRefIPS3_EES7_(ptr noundef nonnull align 8 dereferenceable(16) %15, ptr noundef nonnull align 8 dereferenceable(8) %16, i32 noundef 11, i32 noundef %17, i32 noundef 40, ptr noundef byval(%"class.llvm::ArrayRef") align 8 %12, ptr noundef byval(%"class.llvm::ArrayRef") align 8 %13)
  %18 = getelementptr inbounds nuw %"class.llvm::DIEnumerator", ptr %15, i32 0, i32 1
  %19 = load ptr, ptr %10, align 8
  call void @_ZN4llvm5APIntC2ERKS0_(ptr noundef nonnull align 8 dereferenceable(12) %18, ptr noundef nonnull align 8 dereferenceable(12) %19)
  %20 = load i8, ptr %11, align 1
  %21 = trunc i8 %20 to i1
  %22 = zext i1 %21 to i32
  %23 = getelementptr inbounds nuw %"class.llvm::Metadata", ptr %15, i32 0, i32 3
  store i32 %22, ptr %23, align 4
  ret void
}