; Function Attrs: mustprogress nounwind uwtable
define dso_local void @_ZN4llvm12DIEnumeratorC2ERNS_11LLVMContextENS_8Metadata11StorageTypeERKNS_5APIntEbNS_8ArrayRefIPS3_EE(ptr noundef nonnull align 8 dereferenceable(32) %0, ptr noundef nonnull align 8 dereferenceable(8) %1, i32 noundef %2, ptr noundef nonnull align 8 dereferenceable(12) %3, i1 noundef zeroext %4, ptr nocapture noundef readonly byval(%"class.llvm::ArrayRef") align 8 %5) unnamed_addr #0 align 2 {
  %7 = alloca %"class.llvm::ArrayRef", align 8
  %.sroa.04.0.copyload = load ptr, ptr %5, align 8
  %.sroa.2.0..sroa_idx = getelementptr inbounds i8, ptr %5, i64 8
  %.sroa.2.0.copyload = load i64, ptr %.sroa.2.0..sroa_idx, align 8
  call void @llvm.lifetime.start.p0(i64 16, ptr nonnull %7)
  call void @llvm.memset.p0.i64(ptr noundef nonnull align 8 dereferenceable(16) %7, i8 0, i64 16, i1 false)
  tail call void @_ZN4llvm6MDNodeC2ERNS_11LLVMContextEjNS_8Metadata11StorageTypeENS_8ArrayRefIPS3_EES7_(ptr noundef nonnull align 8 dereferenceable(16) %0, ptr noundef nonnull align 8 dereferenceable(8) %1, i32 noundef 11, i32 noundef %2, ptr %.sroa.04.0.copyload, i64 %.sroa.2.0.copyload, ptr noundef nonnull byval(%"class.llvm::ArrayRef") align 8 %7) #24
  %8 = getelementptr inbounds nuw i8, ptr %0, i64 2
  store i16 40, ptr %8, align 2
  call void @llvm.lifetime.end.p0(i64 16, ptr nonnull %7)
  %9 = getelementptr inbounds nuw i8, ptr %0, i64 16
  %10 = getelementptr inbounds i8, ptr %0, i64 24
  %11 = getelementptr inbounds nuw i8, ptr %3, i64 8
  %12 = load i32, ptr %11, align 8
  store i32 %12, ptr %10, align 8
  %13 = icmp ult i32 %12, 65
  br i1 %13, label %14, label %16

14:                                               ; preds = %6
  %15 = load i64, ptr %3, align 8
  store i64 %15, ptr %9, align 8
  br label %_ZN4llvm5APIntC2ERKS0_.exit

16:                                               ; preds = %6
  tail call void @_ZN4llvm5APInt12initSlowCaseERKS0_(ptr noundef nonnull align 8 dereferenceable(12) %9, ptr noundef nonnull align 8 dereferenceable(12) %3) #24
  br label %_ZN4llvm5APIntC2ERKS0_.exit

_ZN4llvm5APIntC2ERKS0_.exit:                      ; preds = %14, %16
  %17 = zext i1 %4 to i32
  %18 = getelementptr inbounds nuw i8, ptr %0, i64 4
  store i32 %17, ptr %18, align 4
  ret void
}